target datalayout = "e-m:e-p270:32:32-p271:32:32-p272:64:64-i64:64-i128:128-f80:128-n8:16:32:64-S128"
target triple = "x86_64-pc-linux-gnu"

@.str.17 = private unnamed_addr constant [25 x i8] c"../openssl/test/bntest.c\00", align 1
@.str.108 = private unnamed_addr constant [13 x i8] c"r = BN_new()\00", align 1
@.str.476 = private unnamed_addr constant [52 x i8] c"BN_generate_prime_ex(r, kBits, 0, NULL, NULL, NULL)\00", align 1
@.str.477 = private unnamed_addr constant [15 x i8] c"BN_num_bits(r)\00", align 1
@.str.478 = private unnamed_addr constant [6 x i8] c"kBits\00", align 1

; Function Attrs: nounwind uwtable
define internal i32 @test_smallprime(i32 noundef %0) #0 {
  %2 = alloca i32, align 4
  %3 = alloca ptr, align 8
  %4 = alloca i32, align 4
  store i32 %0, ptr %2, align 4, !tbaa !4
  call void @llvm.lifetime.start.p0(i64 8, ptr %3) #7
  call void @llvm.lifetime.start.p0(i64 4, ptr %4) #7
  store i32 0, ptr %4, align 4, !tbaa !4
  %5 = call ptr @BN_new()
  store ptr %5, ptr %3, align 8, !tbaa !13
  %6 = call i32 @test_ptr(ptr noundef @.str.17, i32 noundef 2624, ptr noundef @.str.108, ptr noundef %5)
  %7 = icmp ne i32 %6, 0
  br i1 %7, label %9, label %8

8:                                                ; preds = %1
  br label %39

9:                                                ; preds = %1
  %10 = load i32, ptr %2, align 4, !tbaa !4
  %11 = icmp sle i32 %10, 1
  br i1 %11, label %12, label %22

12:                                               ; preds = %9
  %13 = load ptr, ptr %3, align 8, !tbaa !13
  %14 = load i32, ptr %2, align 4, !tbaa !4
  %15 = call i32 @BN_generate_prime_ex(ptr noundef %13, i32 noundef %14, i32 noundef 0, ptr noundef null, ptr noundef null, ptr noundef null)
  %16 = icmp ne i32 %15, 0
  %17 = zext i1 %16 to i32
  %18 = call i32 @test_false(ptr noundef @.str.17, i32 noundef 2629, ptr noundef @.str.476, i32 noundef %17)
  %19 = icmp ne i32 %18, 0
  br i1 %19, label %21, label %20

20:                                               ; preds = %12
  br label %39

21:                                               ; preds = %12
  br label %38

22:                                               ; preds = %9
  %23 = load ptr, ptr %3, align 8, !tbaa !13
  %24 = load i32, ptr %2, align 4, !tbaa !4
  %25 = call i32 @BN_generate_prime_ex(ptr noundef %23, i32 noundef %24, i32 noundef 0, ptr noundef null, ptr noundef null, ptr noundef null)
  %26 = icmp ne i32 %25, 0
  %27 = zext i1 %26 to i32
  %28 = call i32 @test_true(ptr noundef @.str.17, i32 noundef 2633, ptr noundef @.str.476, i32 noundef %27)
  %29 = icmp ne i32 %28, 0
  br i1 %29, label %30, label %36

30:                                               ; preds = %22
  %31 = load ptr, ptr %3, align 8, !tbaa !13
  %32 = call i32 @BN_num_bits(ptr noundef %31)
  %33 = load i32, ptr %2, align 4, !tbaa !4
  %34 = call i32 @test_int_eq(ptr noundef @.str.17, i32 noundef 2634, ptr noundef @.str.477, ptr noundef @.str.478, i32 noundef %32, i32 noundef %33)
  %35 = icmp ne i32 %34, 0
  br i1 %35, label %37, label %36

36:                                               ; preds = %30, %22
  br label %39

37:                                               ; preds = %30
  br label %38

38:                                               ; preds = %37, %21
  store i32 1, ptr %4, align 4, !tbaa !4
  br label %39

39:                                               ; preds = %38, %36, %20, %8
  %40 = load ptr, ptr %3, align 8, !tbaa !13
  call void @BN_free(ptr noundef %40)
  %41 = load i32, ptr %4, align 4, !tbaa !4
  call void @llvm.lifetime.end.p0(i64 4, ptr %4) #7
  call void @llvm.lifetime.end.p0(i64 8, ptr %3) #7
  ret i32 %41
}