; Function Attrs: nounwind uwtable
define internal range(i32 0, 2) i32 @test_smallprime(i32 noundef %0) #1 {
  %2 = tail call ptr @BN_new() #8
  %3 = tail call i32 @test_ptr(ptr noundef nonnull @.str.17, i32 noundef 2624, ptr noundef nonnull @.str.108, ptr noundef %2) #8
  %.not = icmp eq i32 %3, 0
  br i1 %.not, label %17, label %4

4:                                                ; preds = %1
  %5 = icmp slt i32 %0, 2
  %6 = tail call i32 @BN_generate_prime_ex(ptr noundef %2, i32 noundef %0, i32 noundef 0, ptr noundef null, ptr noundef null, ptr noundef null) #8
  %7 = icmp ne i32 %6, 0
  %8 = zext i1 %7 to i32
  br i1 %5, label %9, label %11

9:                                                ; preds = %4
  %10 = tail call i32 @test_false(ptr noundef nonnull @.str.17, i32 noundef 2629, ptr noundef nonnull @.str.476, i32 noundef %8) #8
  %.not11 = icmp eq i32 %10, 0
  br i1 %.not11, label %17, label %16

11:                                               ; preds = %4
  %12 = tail call i32 @test_true(ptr noundef nonnull @.str.17, i32 noundef 2633, ptr noundef nonnull @.str.476, i32 noundef %8) #8
  %.not9 = icmp eq i32 %12, 0
  br i1 %.not9, label %17, label %13

13:                                               ; preds = %11
  %14 = tail call i32 @BN_num_bits(ptr noundef %2) #8
  %15 = tail call i32 @test_int_eq(ptr noundef nonnull @.str.17, i32 noundef 2634, ptr noundef nonnull @.str.477, ptr noundef nonnull @.str.478, i32 noundef %14, i32 noundef %0) #8
  %.not10 = icmp eq i32 %15, 0
  br i1 %.not10, label %17, label %16

16:                                               ; preds = %13, %9
  br label %17

17:                                               ; preds = %11, %13, %9, %1, %16
  %.0 = phi i32 [ 1, %16 ], [ 0, %9 ], [ 0, %13 ], [ 0, %11 ], [ 0, %1 ]
  tail call void @BN_free(ptr noundef %2) #8
  ret i32 %.0
}